target datalayout = "e-m:e-p270:32:32-p271:32:32-p272:64:64-i64:64-i128:128-f80:128-n8:16:32:64-S128"
target triple = "x86_64-pc-linux-gnu"

%struct.AVChannelLayout = type { i32, i32, %union.anon, ptr }
%union.anon = type { i64 }

@.str.14 = private unnamed_addr constant [21 x i8] c"Treating %s as mono\0A\00", align 1

; Function Attrs: nounwind uwtable
define internal i32 @clean_layout(ptr noundef %0, ptr noundef %1, ptr noundef %2) #0 {
  %4 = alloca ptr, align 8
  %5 = alloca ptr, align 8
  %6 = alloca ptr, align 8
  %7 = alloca i32, align 4
  %8 = alloca [128 x i8], align 16
  %9 = alloca %struct.AVChannelLayout, align 8
  store ptr %0, ptr %4, align 8, !tbaa !35
  store ptr %1, ptr %5, align 8, !tbaa !35
  store ptr %2, ptr %6, align 8, !tbaa !38
  call void @llvm.lifetime.start.p0(i64 4, ptr %7) #9
  store i32 0, ptr %7, align 4, !tbaa !11
  %10 = load ptr, ptr %5, align 8, !tbaa !35
  %11 = call i32 @av_channel_layout_index_from_channel(ptr noundef %10, i32 noundef 2)
  %12 = icmp slt i32 %11, 0
  br i1 %12, label %13, label %29

13:                                               ; preds = %3
  %14 = load ptr, ptr %5, align 8, !tbaa !35
  %15 = getelementptr inbounds nuw %struct.AVChannelLayout, ptr %14, i32 0, i32 1
  %16 = load i32, ptr %15, align 4, !tbaa !40
  %17 = icmp eq i32 %16, 1
  br i1 %17, label %18, label %29

18:                                               ; preds = %13
  call void @llvm.lifetime.start.p0(i64 128, ptr %8) #9
  %19 = load ptr, ptr %5, align 8, !tbaa !35
  %20 = getelementptr inbounds [128 x i8], ptr %8, i64 0, i64 0
  %21 = call i32 @av_channel_layout_describe(ptr noundef %19, ptr noundef %20, i64 noundef 128)
  %22 = load ptr, ptr %6, align 8, !tbaa !38
  %23 = getelementptr inbounds [128 x i8], ptr %8, i64 0, i64 0
  call void (ptr, i32, ptr, ...) @av_log(ptr noundef %22, i32 noundef 40, ptr noundef @.str.14, ptr noundef %23)
  %24 = load ptr, ptr %4, align 8, !tbaa !35
  %25 = getelementptr inbounds nuw %struct.AVChannelLayout, ptr %9, i32 0, i32 0
  store i32 1, ptr %25, align 8, !tbaa !39
  %26 = getelementptr inbounds nuw %struct.AVChannelLayout, ptr %9, i32 0, i32 1
  store i32 1, ptr %26, align 4, !tbaa !40
  %27 = getelementptr inbounds nuw %struct.AVChannelLayout, ptr %9, i32 0, i32 2
  store i64 4, ptr %27, align 8, !tbaa !41
  %28 = getelementptr inbounds nuw %struct.AVChannelLayout, ptr %9, i32 0, i32 3
  store ptr null, ptr %28, align 8, !tbaa !42
  call void @llvm.memcpy.p0.p0.i64(ptr align 8 %24, ptr align 8 %9, i64 24, i1 false), !tbaa.struct !43
  call void @llvm.lifetime.end.p0(i64 128, ptr %8) #9
  br label %33

29:                                               ; preds = %13, %3
  %30 = load ptr, ptr %4, align 8, !tbaa !35
  %31 = load ptr, ptr %5, align 8, !tbaa !35
  %32 = call i32 @av_channel_layout_copy(ptr noundef %30, ptr noundef %31)
  store i32 %32, ptr %7, align 4, !tbaa !11
  br label %33

33:                                               ; preds = %29, %18
  %34 = load i32, ptr %7, align 4, !tbaa !11
  call void @llvm.lifetime.end.p0(i64 4, ptr %7) #9
  ret i32 %34
}