; Function Attrs: nounwind uwtable
define internal fastcc i32 @clean_layout(ptr noundef nonnull %0, ptr noundef %1, ptr noundef %2) unnamed_addr #4 {
  %4 = alloca [128 x i8], align 16
  %5 = tail call i32 @av_channel_layout_index_from_channel(ptr noundef %1, i32 noundef 2) #11
  %6 = icmp slt i32 %5, 0
  br i1 %6, label %7, label %13

7:                                                ; preds = %3
  %8 = getelementptr inbounds nuw i8, ptr %1, i64 4
  %9 = load i32, ptr %8, align 4, !tbaa !31
  %10 = icmp eq i32 %9, 1
  br i1 %10, label %11, label %13

11:                                               ; preds = %7
  call void @llvm.lifetime.start.p0(i64 128, ptr nonnull %4) #11
  %12 = call i32 @av_channel_layout_describe(ptr noundef nonnull %1, ptr noundef nonnull %4, i64 noundef 128) #11
  call void (ptr, i32, ptr, ...) @av_log(ptr noundef %2, i32 noundef 40, ptr noundef nonnull @.str.14, ptr noundef nonnull %4) #11
  store i32 1, ptr %0, align 8, !tbaa !34
  %.sroa.2.0..sroa_idx = getelementptr inbounds nuw i8, ptr %0, i64 4
  store i32 1, ptr %.sroa.2.0..sroa_idx, align 4, !tbaa !34
  %.sroa.3.0..sroa_idx = getelementptr inbounds nuw i8, ptr %0, i64 8
  store i64 4, ptr %.sroa.3.0..sroa_idx, align 8, !tbaa !32
  %.sroa.4.0..sroa_idx = getelementptr inbounds nuw i8, ptr %0, i64 16
  store ptr null, ptr %.sroa.4.0..sroa_idx, align 8, !tbaa !35
  call void @llvm.lifetime.end.p0(i64 128, ptr nonnull %4) #11
  br label %15

13:                                               ; preds = %7, %3
  %14 = tail call i32 @av_channel_layout_copy(ptr noundef nonnull %0, ptr noundef %1) #11
  br label %15

15:                                               ; preds = %13, %11
  %.0 = phi i32 [ 0, %11 ], [ %14, %13 ]
  ret i32 %.0
}